target datalayout = "e-m:e-p270:32:32-p271:32:32-p272:64:64-i64:64-i128:128-f80:128-n8:16:32:64-S128"
target triple = "x86_64-pc-linux-gnu"

; Function Attrs: nounwind uwtable
define internal void @unpremultiply16yuv(ptr noundef %0, ptr noundef %1, ptr noundef %2, i64 noundef %3, i64 noundef %4, i64 noundef %5, i32 noundef %6, i32 noundef %7, i32 noundef %8, i32 noundef %9, i32 noundef %10) #1 {
  %12 = alloca ptr, align 8
  %13 = alloca ptr, align 8
  %14 = alloca ptr, align 8
  %15 = alloca i64, align 8
  %16 = alloca i64, align 8
  %17 = alloca i64, align 8
  %18 = alloca i32, align 4
  %19 = alloca i32, align 4
  %20 = alloca i32, align 4
  %21 = alloca i32, align 4
  %22 = alloca i32, align 4
  %23 = alloca ptr, align 8
  %24 = alloca ptr, align 8
  %25 = alloca ptr, align 8
  %26 = alloca i32, align 4
  %27 = alloca i32, align 4
  store ptr %0, ptr %12, align 8, !tbaa !91
  store ptr %1, ptr %13, align 8, !tbaa !91
  store ptr %2, ptr %14, align 8, !tbaa !91
  store i64 %3, ptr %15, align 8, !tbaa !50
  store i64 %4, ptr %16, align 8, !tbaa !50
  store i64 %5, ptr %17, align 8, !tbaa !50
  store i32 %6, ptr %18, align 4, !tbaa !37
  store i32 %7, ptr %19, align 4, !tbaa !37
  store i32 %8, ptr %20, align 4, !tbaa !37
  store i32 %9, ptr %21, align 4, !tbaa !37
  store i32 %10, ptr %22, align 4, !tbaa !37
  call void @llvm.lifetime.start.p0(i64 8, ptr %23) #11
  %28 = load ptr, ptr %12, align 8, !tbaa !91
  store ptr %28, ptr %23, align 8, !tbaa !99
  call void @llvm.lifetime.start.p0(i64 8, ptr %24) #11
  %29 = load ptr, ptr %13, align 8, !tbaa !91
  store ptr %29, ptr %24, align 8, !tbaa !99
  call void @llvm.lifetime.start.p0(i64 8, ptr %25) #11
  %30 = load ptr, ptr %14, align 8, !tbaa !91
  store ptr %30, ptr %25, align 8, !tbaa !99
  call void @llvm.lifetime.start.p0(i64 4, ptr %26) #11
  call void @llvm.lifetime.start.p0(i64 4, ptr %27) #11
  store i32 0, ptr %27, align 4, !tbaa !37
  br label %31

31:                                               ; preds = %187, %11
  %32 = load i32, ptr %27, align 4, !tbaa !37
  %33 = load i32, ptr %19, align 4, !tbaa !37
  %34 = icmp slt i32 %32, %33
  br i1 %34, label %35, label %190

35:                                               ; preds = %31
  store i32 0, ptr %26, align 4, !tbaa !37
  br label %36

36:                                               ; preds = %171, %35
  %37 = load i32, ptr %26, align 4, !tbaa !37
  %38 = load i32, ptr %18, align 4, !tbaa !37
  %39 = icmp slt i32 %37, %38
  br i1 %39, label %40, label %174

40:                                               ; preds = %36
  %41 = load ptr, ptr %24, align 8, !tbaa !99
  %42 = load i32, ptr %26, align 4, !tbaa !37
  %43 = sext i32 %42 to i64
  %44 = getelementptr inbounds i16, ptr %41, i64 %43
  %45 = load i16, ptr %44, align 2, !tbaa !101
  %46 = zext i16 %45 to i32
  %47 = icmp sgt i32 %46, 0
  br i1 %47, label %48, label %160

48:                                               ; preds = %40
  %49 = load ptr, ptr %24, align 8, !tbaa !99
  %50 = load i32, ptr %26, align 4, !tbaa !37
  %51 = sext i32 %50 to i64
  %52 = getelementptr inbounds i16, ptr %49, i64 %51
  %53 = load i16, ptr %52, align 2, !tbaa !101
  %54 = zext i16 %53 to i32
  %55 = load i32, ptr %21, align 4, !tbaa !37
  %56 = icmp slt i32 %54, %55
  br i1 %56, label %57, label %160

57:                                               ; preds = %48
  %58 = load ptr, ptr %23, align 8, !tbaa !99
  %59 = load i32, ptr %26, align 4, !tbaa !37
  %60 = sext i32 %59 to i64
  %61 = getelementptr inbounds i16, ptr %58, i64 %60
  %62 = load i16, ptr %61, align 2, !tbaa !101
  %63 = zext i16 %62 to i32
  %64 = load i32, ptr %20, align 4, !tbaa !37
  %65 = sub nsw i32 %63, %64
  %66 = load i32, ptr %21, align 4, !tbaa !37
  %67 = mul nsw i32 %65, %66
  %68 = load ptr, ptr %24, align 8, !tbaa !99
  %69 = load i32, ptr %26, align 4, !tbaa !37
  %70 = sext i32 %69 to i64
  %71 = getelementptr inbounds i16, ptr %68, i64 %70
  %72 = load i16, ptr %71, align 2, !tbaa !101
  %73 = zext i16 %72 to i32
  %74 = sdiv i32 %67, %73
  %75 = load i32, ptr %20, align 4, !tbaa !37
  %76 = sub nsw i32 %75, 1
  %77 = icmp sgt i32 %74, %76
  br i1 %77, label %78, label %81

78:                                               ; preds = %57
  %79 = load i32, ptr %20, align 4, !tbaa !37
  %80 = sub nsw i32 %79, 1
  br label %99

81:                                               ; preds = %57
  %82 = load ptr, ptr %23, align 8, !tbaa !99
  %83 = load i32, ptr %26, align 4, !tbaa !37
  %84 = sext i32 %83 to i64
  %85 = getelementptr inbounds i16, ptr %82, i64 %84
  %86 = load i16, ptr %85, align 2, !tbaa !101
  %87 = zext i16 %86 to i32
  %88 = load i32, ptr %20, align 4, !tbaa !37
  %89 = sub nsw i32 %87, %88
  %90 = load i32, ptr %21, align 4, !tbaa !37
  %91 = mul nsw i32 %89, %90
  %92 = load ptr, ptr %24, align 8, !tbaa !99
  %93 = load i32, ptr %26, align 4, !tbaa !37
  %94 = sext i32 %93 to i64
  %95 = getelementptr inbounds i16, ptr %92, i64 %94
  %96 = load i16, ptr %95, align 2, !tbaa !101
  %97 = zext i16 %96 to i32
  %98 = sdiv i32 %91, %97
  br label %99

99:                                               ; preds = %81, %78
  %100 = phi i32 [ %80, %78 ], [ %98, %81 ]
  %101 = load i32, ptr %20, align 4, !tbaa !37
  %102 = sub nsw i32 0, %101
  %103 = icmp sgt i32 %100, %102
  br i1 %103, label %104, label %148

104:                                              ; preds = %99
  %105 = load ptr, ptr %23, align 8, !tbaa !99
  %106 = load i32, ptr %26, align 4, !tbaa !37
  %107 = sext i32 %106 to i64
  %108 = getelementptr inbounds i16, ptr %105, i64 %107
  %109 = load i16, ptr %108, align 2, !tbaa !101
  %110 = zext i16 %109 to i32
  %111 = load i32, ptr %20, align 4, !tbaa !37
  %112 = sub nsw i32 %110, %111
  %113 = load i32, ptr %21, align 4, !tbaa !37
  %114 = mul nsw i32 %112, %113
  %115 = load ptr, ptr %24, align 8, !tbaa !99
  %116 = load i32, ptr %26, align 4, !tbaa !37
  %117 = sext i32 %116 to i64
  %118 = getelementptr inbounds i16, ptr %115, i64 %117
  %119 = load i16, ptr %118, align 2, !tbaa !101
  %120 = zext i16 %119 to i32
  %121 = sdiv i32 %114, %120
  %122 = load i32, ptr %20, align 4, !tbaa !37
  %123 = sub nsw i32 %122, 1
  %124 = icmp sgt i32 %121, %123
  br i1 %124, label %125, label %128

125:                                              ; preds = %104
  %126 = load i32, ptr %20, align 4, !tbaa !37
  %127 = sub nsw i32 %126, 1
  br label %146

128:                                              ; preds = %104
  %129 = load ptr, ptr %23, align 8, !tbaa !99
  %130 = load i32, ptr %26, align 4, !tbaa !37
  %131 = sext i32 %130 to i64
  %132 = getelementptr inbounds i16, ptr %129, i64 %131
  %133 = load i16, ptr %132, align 2, !tbaa !101
  %134 = zext i16 %133 to i32
  %135 = load i32, ptr %20, align 4, !tbaa !37
  %136 = sub nsw i32 %134, %135
  %137 = load i32, ptr %21, align 4, !tbaa !37
  %138 = mul nsw i32 %136, %137
  %139 = load ptr, ptr %24, align 8, !tbaa !99
  %140 = load i32, ptr %26, align 4, !tbaa !37
  %141 = sext i32 %140 to i64
  %142 = getelementptr inbounds i16, ptr %139, i64 %141
  %143 = load i16, ptr %142, align 2, !tbaa !101
  %144 = zext i16 %143 to i32
  %145 = sdiv i32 %138, %144
  br label %146

146:                                              ; preds = %128, %125
  %147 = phi i32 [ %127, %125 ], [ %145, %128 ]
  br label %151

148:                                              ; preds = %99
  %149 = load i32, ptr %20, align 4, !tbaa !37
  %150 = sub nsw i32 0, %149
  br label %151

151:                                              ; preds = %148, %146
  %152 = phi i32 [ %147, %146 ], [ %150, %148 ]
  %153 = load i32, ptr %20, align 4, !tbaa !37
  %154 = add nsw i32 %152, %153
  %155 = trunc i32 %154 to i16
  %156 = load ptr, ptr %25, align 8, !tbaa !99
  %157 = load i32, ptr %26, align 4, !tbaa !37
  %158 = sext i32 %157 to i64
  %159 = getelementptr inbounds i16, ptr %156, i64 %158
  store i16 %155, ptr %159, align 2, !tbaa !101
  br label %170

160:                                              ; preds = %48, %40
  %161 = load ptr, ptr %23, align 8, !tbaa !99
  %162 = load i32, ptr %26, align 4, !tbaa !37
  %163 = sext i32 %162 to i64
  %164 = getelementptr inbounds i16, ptr %161, i64 %163
  %165 = load i16, ptr %164, align 2, !tbaa !101
  %166 = load ptr, ptr %25, align 8, !tbaa !99
  %167 = load i32, ptr %26, align 4, !tbaa !37
  %168 = sext i32 %167 to i64
  %169 = getelementptr inbounds i16, ptr %166, i64 %168
  store i16 %165, ptr %169, align 2, !tbaa !101
  br label %170

170:                                              ; preds = %160, %151
  br label %171

171:                                              ; preds = %170
  %172 = load i32, ptr %26, align 4, !tbaa !37
  %173 = add nsw i32 %172, 1
  store i32 %173, ptr %26, align 4, !tbaa !37
  br label %36, !llvm.loop !107

174:                                              ; preds = %36
  %175 = load i64, ptr %17, align 8, !tbaa !50
  %176 = sdiv i64 %175, 2
  %177 = load ptr, ptr %25, align 8, !tbaa !99
  %178 = getelementptr inbounds i16, ptr %177, i64 %176
  store ptr %178, ptr %25, align 8, !tbaa !99
  %179 = load i64, ptr %15, align 8, !tbaa !50
  %180 = sdiv i64 %179, 2
  %181 = load ptr, ptr %23, align 8, !tbaa !99
  %182 = getelementptr inbounds i16, ptr %181, i64 %180
  store ptr %182, ptr %23, align 8, !tbaa !99
  %183 = load i64, ptr %16, align 8, !tbaa !50
  %184 = sdiv i64 %183, 2
  %185 = load ptr, ptr %24, align 8, !tbaa !99
  %186 = getelementptr inbounds i16, ptr %185, i64 %184
  store ptr %186, ptr %24, align 8, !tbaa !99
  br label %187

187:                                              ; preds = %174
  %188 = load i32, ptr %27, align 4, !tbaa !37
  %189 = add nsw i32 %188, 1
  store i32 %189, ptr %27, align 4, !tbaa !37
  br label %31, !llvm.loop !108

190:                                              ; preds = %31
  call void @llvm.lifetime.end.p0(i64 4, ptr %27) #11
  call void @llvm.lifetime.end.p0(i64 4, ptr %26) #11
  call void @llvm.lifetime.end.p0(i64 8, ptr %25) #11
  call void @llvm.lifetime.end.p0(i64 8, ptr %24) #11
  call void @llvm.lifetime.end.p0(i64 8, ptr %23) #11
  ret void
}