; Function Attrs: nofree norecurse nosync nounwind memory(argmem: readwrite) uwtable
define internal void @unpremultiply16yuv(ptr noundef readonly captures(none) %0, ptr noundef readonly captures(none) %1, ptr noundef writeonly captures(none) %2, i64 noundef %3, i64 noundef %4, i64 noundef %5, i32 noundef %6, i32 noundef %7, i32 noundef %8, i32 noundef %9, i32 %10) #5 {
  %12 = icmp sgt i32 %7, 0
  br i1 %12, label %.preheader.lr.ph, label %._crit_edge74

.preheader.lr.ph:                                 ; preds = %11
  %13 = icmp sgt i32 %6, 0
  %14 = add nsw i32 %8, -1
  %15 = sub nsw i32 0, %8
  %16 = sdiv i64 %5, 2
  %17 = sdiv i64 %3, 2
  %18 = sdiv i64 %4, 2
  br i1 %13, label %.preheader.us.preheader, label %._crit_edge74

.preheader.us.preheader:                          ; preds = %.preheader.lr.ph
  %wide.trip.count = zext nneg i32 %6 to i64
  br label %.preheader.us

.preheader.us:                                    ; preds = %.preheader.us.preheader, %._crit_edge.us
  %.073.us = phi i32 [ %38, %._crit_edge.us ], [ 0, %.preheader.us.preheader ]
  %.05772.us = phi ptr [ %35, %._crit_edge.us ], [ %2, %.preheader.us.preheader ]
  %.05871.us = phi ptr [ %37, %._crit_edge.us ], [ %1, %.preheader.us.preheader ]
  %.05970.us = phi ptr [ %36, %._crit_edge.us ], [ %0, %.preheader.us.preheader ]
  br label %19

19:                                               ; preds = %.preheader.us, %33
  %indvars.iv = phi i64 [ 0, %.preheader.us ], [ %indvars.iv.next, %33 ]
  %20 = getelementptr inbounds nuw i16, ptr %.05871.us, i64 %indvars.iv
  %21 = load i16, ptr %20, align 2, !tbaa !85
  %22 = zext i16 %21 to i32
  %.not.us = icmp ne i16 %21, 0
  %23 = icmp sgt i32 %9, %22
  %or.cond.us = and i1 %.not.us, %23
  %24 = getelementptr inbounds nuw i16, ptr %.05970.us, i64 %indvars.iv
  %25 = load i16, ptr %24, align 2, !tbaa !85
  br i1 %or.cond.us, label %26, label %33

26:                                               ; preds = %19
  %27 = zext i16 %25 to i32
  %28 = sub nsw i32 %27, %8
  %29 = mul nsw i32 %28, %9
  %30 = sdiv i32 %29, %22
  %.not66.us = icmp slt i32 %30, %8
  %..us = select i1 %.not66.us, i32 %30, i32 %14
  %spec.select.us = tail call i32 @llvm.smax.i32(i32 %..us, i32 %15)
  %31 = add nsw i32 %spec.select.us, %8
  %32 = trunc i32 %31 to i16
  br label %33

33:                                               ; preds = %19, %26
  %.sink = phi i16 [ %32, %26 ], [ %25, %19 ]
  %34 = getelementptr inbounds nuw i16, ptr %.05772.us, i64 %indvars.iv
  store i16 %.sink, ptr %34, align 2, !tbaa !85
  %indvars.iv.next = add nuw nsw i64 %indvars.iv, 1
  %exitcond.not = icmp eq i64 %indvars.iv.next, %wide.trip.count
  br i1 %exitcond.not, label %._crit_edge.us, label %19, !llvm.loop !91

._crit_edge.us:                                   ; preds = %33
  %35 = getelementptr inbounds i16, ptr %.05772.us, i64 %16
  %36 = getelementptr inbounds i16, ptr %.05970.us, i64 %17
  %37 = getelementptr inbounds i16, ptr %.05871.us, i64 %18
  %38 = add nuw nsw i32 %.073.us, 1
  %exitcond77.not = icmp eq i32 %38, %7
  br i1 %exitcond77.not, label %._crit_edge74, label %.preheader.us, !llvm.loop !92

._crit_edge74:                                    ; preds = %._crit_edge.us, %.preheader.lr.ph, %11
  ret void
}